; Function Attrs: mustprogress uwtable
define internal void @_ZN2cvL14resizeGeneric_INS_15HResizeLanczos4IddfEENS_15VResizeLanczos4IddfNS_4CastIddEENS_12VResizeNoVecEEEEEvRKNS_3MatERS8_PKiPKvSD_SF_iii(ptr noundef nonnull align 8 dereferenceable(96) %0, ptr noundef nonnull align 8 dereferenceable(96) %1, ptr noundef %2, ptr noundef %3, ptr noundef %4, ptr noundef %5, i32 noundef %6, i32 noundef %7, i32 noundef %8) #4 personality ptr @__gxx_personality_v0 {
  %10 = alloca %"class.cv::Size_", align 8
  %11 = alloca %"class.cv::Size_", align 8
  %12 = alloca %"class.cv::Range", align 4
  %13 = alloca %"class.cv::resizeGeneric_Invoker.58", align 8
  call void @llvm.lifetime.start.p0(i64 8, ptr nonnull %10) #21
  %14 = getelementptr inbounds nuw i8, ptr %0, i64 64
  %15 = load ptr, ptr %14, align 8, !tbaa !13
  %16 = getelementptr inbounds nuw i8, ptr %15, i64 4
  %17 = load i32, ptr %16, align 4, !tbaa !16
  %18 = load i32, ptr %15, align 4, !tbaa !16
  %.sroa.2.0.insert.ext.i = zext i32 %18 to i64
  %.sroa.2.0.insert.shift.i = shl nuw i64 %.sroa.2.0.insert.ext.i, 32
  %.sroa.0.0.insert.ext.i = zext i32 %17 to i64
  %.sroa.0.0.insert.insert.i = or disjoint i64 %.sroa.2.0.insert.shift.i, %.sroa.0.0.insert.ext.i
  store i64 %.sroa.0.0.insert.insert.i, ptr %10, align 8
  call void @llvm.lifetime.start.p0(i64 8, ptr nonnull %11) #21
  %19 = getelementptr inbounds nuw i8, ptr %1, i64 64
  %20 = load ptr, ptr %19, align 8, !tbaa !13
  %21 = getelementptr inbounds nuw i8, ptr %20, i64 4
  %22 = load i32, ptr %21, align 4, !tbaa !16
  %23 = load i32, ptr %20, align 4, !tbaa !16
  %.sroa.2.0.insert.ext.i21 = zext i32 %23 to i64
  %.sroa.2.0.insert.shift.i22 = shl nuw i64 %.sroa.2.0.insert.ext.i21, 32
  %.sroa.0.0.insert.ext.i23 = zext i32 %22 to i64
  %.sroa.0.0.insert.insert.i24 = or disjoint i64 %.sroa.2.0.insert.shift.i22, %.sroa.0.0.insert.ext.i23
  store i64 %.sroa.0.0.insert.insert.i24, ptr %11, align 8
  %24 = load i32, ptr %0, align 8, !tbaa !49
  %25 = lshr i32 %24, 3
  %26 = and i32 %25, 511
  %27 = add nuw nsw i32 %26, 1
  %28 = mul nsw i32 %27, %17
  store i32 %28, ptr %10, align 8, !tbaa !81
  %29 = mul nsw i32 %22, %27
  store i32 %29, ptr %11, align 8, !tbaa !81
  %30 = mul nsw i32 %27, %6
  %31 = mul nsw i32 %27, %7
  call void @llvm.lifetime.start.p0(i64 8, ptr nonnull %12) #21
  store i32 0, ptr %12, align 4, !tbaa !31
  %32 = getelementptr inbounds nuw i8, ptr %12, i64 4
  store i32 %23, ptr %32, align 4, !tbaa !33
  call void @llvm.lifetime.start.p0(i64 264, ptr nonnull %13) #21
  call void @_ZN2cv21resizeGeneric_InvokerINS_15HResizeLanczos4IddfEENS_15VResizeLanczos4IddfNS_4CastIddEENS_12VResizeNoVecEEEEC2ERKNS_3MatERS9_PKiSE_PKfSG_RKNS_5Size_IiEESK_iii(ptr noundef nonnull align 8 dereferenceable(260) %13, ptr noundef nonnull align 8 dereferenceable(96) %0, ptr noundef nonnull align 8 dereferenceable(96) %1, ptr noundef %2, ptr noundef %4, ptr noundef %3, ptr noundef %5, ptr noundef nonnull align 4 dereferenceable(8) %10, ptr noundef nonnull align 4 dereferenceable(8) %11, i32 noundef %8, i32 noundef %30, i32 noundef %31)
  %33 = invoke noundef i64 @_ZNK2cv3Mat5totalEv(ptr noundef nonnull align 8 dereferenceable(96) %1)
          to label %34 unwind label %40

34:                                               ; preds = %9
  %35 = uitofp i64 %33 to double
  %36 = fmul double %35, 0x3EF0000000000000
  invoke void @_ZN2cv13parallel_for_ERKNS_5RangeERKNS_16ParallelLoopBodyEd(ptr noundef nonnull align 4 dereferenceable(8) %12, ptr noundef nonnull align 8 dereferenceable(8) %13, double noundef %36)
          to label %37 unwind label %40

37:                                               ; preds = %34
  store ptr getelementptr inbounds nuw inrange(-16, 24) (i8, ptr @_ZTVN2cv21resizeGeneric_InvokerINS_15HResizeLanczos4IddfEENS_15VResizeLanczos4IddfNS_4CastIddEENS_12VResizeNoVecEEEEE, i64 16), ptr %13, align 8, !tbaa !34
  %38 = getelementptr inbounds nuw i8, ptr %13, i64 104
  call void @_ZN2cv3MatD1Ev(ptr noundef nonnull align 8 dereferenceable(96) %38) #21
  %39 = getelementptr inbounds nuw i8, ptr %13, i64 8
  call void @_ZN2cv3MatD1Ev(ptr noundef nonnull align 8 dereferenceable(96) %39) #21
  call void @_ZN2cv16ParallelLoopBodyD2Ev(ptr noundef nonnull align 8 dereferenceable(260) %13) #21
  call void @llvm.lifetime.end.p0(i64 264, ptr nonnull %13) #21
  call void @llvm.lifetime.end.p0(i64 8, ptr nonnull %12) #21
  call void @llvm.lifetime.end.p0(i64 8, ptr nonnull %11) #21
  call void @llvm.lifetime.end.p0(i64 8, ptr nonnull %10) #21
  ret void

40:                                               ; preds = %34, %9
  %41 = landingpad { ptr, i32 }
          cleanup
  call void @_ZN2cv21resizeGeneric_InvokerINS_15HResizeLanczos4IddfEENS_15VResizeLanczos4IddfNS_4CastIddEENS_12VResizeNoVecEEEED2Ev(ptr noundef nonnull align 8 dereferenceable(260) %13) #21
  call void @llvm.lifetime.end.p0(i64 264, ptr nonnull %13) #21
  call void @llvm.lifetime.end.p0(i64 8, ptr nonnull %12) #21
  call void @llvm.lifetime.end.p0(i64 8, ptr nonnull %11) #21
  call void @llvm.lifetime.end.p0(i64 8, ptr nonnull %10) #21
  resume { ptr, i32 } %41
}